; Function Attrs: mustprogress nounwind uwtable
define dso_local void @_ZN3igl32infinite_cost_stopping_conditionERKSt8functionIFviRKN5Eigen6MatrixIdLin1ELin1ELi0ELin1ELin1EEERKNS2_IiLin1ELin1ELi0ELin1ELin1EEES8_RKNS2_IiLin1ELi1ELi0ELin1ELi1EEES8_S8_RdRNS2_IdLi1ELin1ELi1ELi1ELin1EEEEERS0_IFbS5_S8_S8_SB_S8_S8_RKSt14priority_queueISt5tupleIJdiiEESt6vectorISL_SaISL_EESt7greaterISL_EESB_S5_iiiiiEE(ptr noundef nonnull align 8 dereferenceable(32) %0, ptr noundef nonnull align 8 captures(none) dereferenceable(32) %1) local_unnamed_addr #0 personality ptr @__gxx_personality_v0 {
  %.sroa.0.i.i.i = alloca { i64, i64 }, align 8
  %3 = alloca %"class.std::function.1", align 8
  %4 = ptrtoint ptr %0 to i64
  call void @llvm.lifetime.start.p0(i64 32, ptr nonnull %3) #11
  %5 = getelementptr inbounds nuw i8, ptr %3, i64 16
  %6 = getelementptr inbounds nuw i8, ptr %3, i64 24
  %7 = getelementptr inbounds nuw i8, ptr %3, i64 8
  store i64 0, ptr %7, align 8
  store i64 %4, ptr %3, align 8, !tbaa !4
  call void @llvm.lifetime.start.p0(i64 16, ptr nonnull %.sroa.0.i.i.i)
  call void @llvm.memcpy.p0.p0.i64(ptr noundef nonnull align 8 dereferenceable(16) %.sroa.0.i.i.i, ptr noundef nonnull align 8 dereferenceable(32) %3, i64 16, i1 false), !tbaa.struct !9
  call void @llvm.memcpy.p0.p0.i64(ptr noundef nonnull align 8 dereferenceable(32) %3, ptr noundef nonnull align 8 dereferenceable(32) %1, i64 16, i1 false), !tbaa.struct !9
  call void @llvm.memcpy.p0.p0.i64(ptr noundef nonnull align 8 dereferenceable(32) %1, ptr noundef nonnull align 8 dereferenceable(16) %.sroa.0.i.i.i, i64 16, i1 false), !tbaa.struct !9
  call void @llvm.lifetime.end.p0(i64 16, ptr nonnull %.sroa.0.i.i.i)
  %8 = getelementptr inbounds nuw i8, ptr %1, i64 16
  %9 = load ptr, ptr %8, align 8, !tbaa !11
  store ptr %9, ptr %5, align 8, !tbaa !11
  store ptr @"_ZNSt17_Function_handlerIFbRKN5Eigen6MatrixIdLin1ELin1ELi0ELin1ELin1EEERKNS1_IiLin1ELin1ELi0ELin1ELin1EEES7_RKNS1_IiLin1ELi1ELi0ELin1ELi1EEES7_S7_RKSt14priority_queueISt5tupleIJdiiEESt6vectorISD_SaISD_EESt7greaterISD_EESA_S4_iiiiiEZN3igl32infinite_cost_stopping_conditionERKSt8functionIFviS4_S7_S7_SA_S7_S7_RdRNS1_IdLi1ELin1ELi1ELi1ELin1EEEEERSO_ISM_EE3$_0E10_M_managerERSt9_Any_dataRKS10_St18_Manager_operation", ptr %8, align 8, !tbaa !11
  %10 = getelementptr inbounds nuw i8, ptr %1, i64 24
  %11 = load ptr, ptr %10, align 8, !tbaa !11
  store ptr %11, ptr %6, align 8, !tbaa !11
  store ptr @"_ZNSt17_Function_handlerIFbRKN5Eigen6MatrixIdLin1ELin1ELi0ELin1ELin1EEERKNS1_IiLin1ELin1ELi0ELin1ELin1EEES7_RKNS1_IiLin1ELi1ELi0ELin1ELi1EEES7_S7_RKSt14priority_queueISt5tupleIJdiiEESt6vectorISD_SaISD_EESt7greaterISD_EESA_S4_iiiiiEZN3igl32infinite_cost_stopping_conditionERKSt8functionIFviS4_S7_S7_SA_S7_S7_RdRNS1_IdLi1ELin1ELi1ELi1ELin1EEEEERSO_ISM_EE3$_0E9_M_invokeERKSt9_Any_dataS4_S7_S7_SA_S7_S7_SL_SA_S4_OiS13_S13_S13_S13_", ptr %10, align 8, !tbaa !11
  %.not.i.i = icmp eq ptr %9, null
  br i1 %.not.i.i, label %"_ZNSt8functionIFbRKN5Eigen6MatrixIdLin1ELin1ELi0ELin1ELin1EEERKNS1_IiLin1ELin1ELi0ELin1ELin1EEES7_RKNS1_IiLin1ELi1ELi0ELin1ELi1EEES7_S7_RKSt14priority_queueISt5tupleIJdiiEESt6vectorISD_SaISD_EESt7greaterISD_EESA_S4_iiiiiEEaSIZN3igl32infinite_cost_stopping_conditionERKS_IFviS4_S7_S7_SA_S7_S7_RdRNS1_IdLi1ELin1ELi1ELi1ELin1EEEEERSN_E3$_0EENSt9enable_ifIXsr9_CallableIT_EE5valueESX_E4typeEOS10_.exit", label %12

12:                                               ; preds = %2
  %13 = invoke noundef zeroext i1 %9(ptr noundef nonnull align 8 dereferenceable(32) %3, ptr noundef nonnull align 8 dereferenceable(32) %3, i32 noundef 3)
          to label %"_ZNSt8functionIFbRKN5Eigen6MatrixIdLin1ELin1ELi0ELin1ELin1EEERKNS1_IiLin1ELin1ELi0ELin1ELin1EEES7_RKNS1_IiLin1ELi1ELi0ELin1ELi1EEES7_S7_RKSt14priority_queueISt5tupleIJdiiEESt6vectorISD_SaISD_EESt7greaterISD_EESA_S4_iiiiiEEaSIZN3igl32infinite_cost_stopping_conditionERKS_IFviS4_S7_S7_SA_S7_S7_RdRNS1_IdLi1ELin1ELi1ELi1ELin1EEEEERSN_E3$_0EENSt9enable_ifIXsr9_CallableIT_EE5valueESX_E4typeEOS10_.exit" unwind label %14

14:                                               ; preds = %12
  %15 = landingpad { ptr, i32 }
          catch ptr null
  %16 = extractvalue { ptr, i32 } %15, 0
  call void @__clang_call_terminate(ptr %16) #12
  unreachable

"_ZNSt8functionIFbRKN5Eigen6MatrixIdLin1ELin1ELi0ELin1ELin1EEERKNS1_IiLin1ELin1ELi0ELin1ELin1EEES7_RKNS1_IiLin1ELi1ELi0ELin1ELi1EEES7_S7_RKSt14priority_queueISt5tupleIJdiiEESt6vectorISD_SaISD_EESt7greaterISD_EESA_S4_iiiiiEEaSIZN3igl32infinite_cost_stopping_conditionERKS_IFviS4_S7_S7_SA_S7_S7_RdRNS1_IdLi1ELin1ELi1ELi1ELin1EEEEERSN_E3$_0EENSt9enable_ifIXsr9_CallableIT_EE5valueESX_E4typeEOS10_.exit": ; preds = %2, %12
  call void @llvm.lifetime.end.p0(i64 32, ptr nonnull %3) #11
  ret void
}